target datalayout = "e-m:e-p270:32:32-p271:32:32-p272:64:64-i64:64-i128:128-f80:128-n8:16:32:64-S128"
target triple = "x86_64-unknown-linux-gnu"

%class.aiMatrix3x3t = type { float, float, float, float, float, float, float, float, float }

; Function Attrs: mustprogress nounwind uwtable
define linkonce_odr hidden noundef float @_Z6p2tMaxff(float noundef %a, float noundef %b) #0 comdat {
entry:
  %a.addr = alloca float, align 4
  %b.addr = alloca float, align 4
  store float %a, ptr %a.addr, align 4
  store float %b, ptr %b.addr, align 4
  %0 = load float, ptr %a.addr, align 4
  %1 = load float, ptr %b.addr, align 4
  %cmp = fcmp ogt float %0, %1
  br i1 %cmp, label %cond.true, label %cond.false

cond.true:                                        ; preds = %entry
  %2 = load float, ptr %a.addr, align 4
  br label %cond.end

cond.false:                                       ; preds = %entry
  %3 = load float, ptr %b.addr, align 4
  br label %cond.end

cond.end:                                         ; preds = %cond.false, %cond.true
  %cond = phi float [ %2, %cond.true ], [ %3, %cond.false ]
  ret float %cond
}

; Function Attrs: mustprogress nounwind uwtable
define linkonce_odr noundef float @_ZSt4fabsf(float noundef %__x) #0 comdat {
entry:
  %__x.addr = alloca float, align 4
  store float %__x, ptr %__x.addr, align 4
  %0 = load float, ptr %__x.addr, align 4
  %1 = call float @llvm.fabs.f32(float %0)
  ret float %1
}

; Function Attrs: mustprogress nounwind uwtable
define linkonce_odr hidden noundef ptr @_ZNK12aiMatrix3x3tIfEixEj(ptr noundef nonnull align 4 dereferenceable(36) %this, i32 noundef %p_iIndex) #0 comdat align 2 {
entry:
  %retval = alloca ptr, align 8
  %this.addr = alloca ptr, align 8
  %p_iIndex.addr = alloca i32, align 4
  store ptr %this, ptr %this.addr, align 8
  store i32 %p_iIndex, ptr %p_iIndex.addr, align 4
  %this1 = load ptr, ptr %this.addr, align 8
  %0 = load i32, ptr %p_iIndex.addr, align 4
  switch i32 %0, label %sw.default [
    i32 0, label %sw.bb
    i32 1, label %sw.bb2
    i32 2, label %sw.bb3
  ]

sw.bb:                                            ; preds = %entry
  %a1 = getelementptr inbounds %class.aiMatrix3x3t, ptr %this1, i32 0, i32 0
  store ptr %a1, ptr %retval, align 8
  br label %return

sw.bb2:                                           ; preds = %entry
  %b1 = getelementptr inbounds %class.aiMatrix3x3t, ptr %this1, i32 0, i32 3
  store ptr %b1, ptr %retval, align 8
  br label %return

sw.bb3:                                           ; preds = %entry
  %c1 = getelementptr inbounds %class.aiMatrix3x3t, ptr %this1, i32 0, i32 6
  store ptr %c1, ptr %retval, align 8
  br label %return

sw.default:                                       ; preds = %entry
  br label %sw.epilog

sw.epilog:                                        ; preds = %sw.default
  %a14 = getelementptr inbounds %class.aiMatrix3x3t, ptr %this1, i32 0, i32 0
  store ptr %a14, ptr %retval, align 8
  br label %return

return:                                           ; preds = %sw.epilog, %sw.bb3, %sw.bb2, %sw.bb
  %1 = load ptr, ptr %retval, align 8
  ret ptr %1
}

; Function Attrs: mustprogress uwtable
define hidden noundef float @_ZNK6Assimp21BlenderTessellatorP2T21FindLargestMatrixElemERK12aiMatrix3x3tIfE(ptr noundef nonnull align 8 dereferenceable(8) %this, ptr noundef nonnull align 4 dereferenceable(36) %mtx) #2 align 2 {
entry:
  %this.addr = alloca ptr, align 8
  %mtx.addr = alloca ptr, align 8
  %result = alloca float, align 4
  %x = alloca i32, align 4
  %y = alloca i32, align 4
  store ptr %this, ptr %this.addr, align 8
  store ptr %mtx, ptr %mtx.addr, align 8
  store float 0.000000e+00, ptr %result, align 4
  store i32 0, ptr %x, align 4
  br label %for.cond

for.cond:                                         ; preds = %for.inc7, %entry
  %0 = load i32, ptr %x, align 4
  %cmp = icmp ult i32 %0, 3
  br i1 %cmp, label %for.body, label %for.end9

for.body:                                         ; preds = %for.cond
  store i32 0, ptr %y, align 4
  br label %for.cond2

for.cond2:                                        ; preds = %for.inc, %for.body
  %1 = load i32, ptr %y, align 4
  %cmp3 = icmp ult i32 %1, 3
  br i1 %cmp3, label %for.body4, label %for.end

for.body4:                                        ; preds = %for.cond2
  %2 = load ptr, ptr %mtx.addr, align 8
  %3 = load i32, ptr %x, align 4
  %call = call noundef ptr @_ZNK12aiMatrix3x3tIfEixEj(ptr noundef nonnull align 4 dereferenceable(36) %2, i32 noundef %3)
  %4 = load i32, ptr %y, align 4
  %idxprom = zext i32 %4 to i64
  %arrayidx = getelementptr inbounds float, ptr %call, i64 %idxprom
  %5 = load float, ptr %arrayidx, align 4
  %call5 = call noundef float @_ZSt4fabsf(float noundef %5)
  %6 = load float, ptr %result, align 4
  %call6 = call noundef float @_Z6p2tMaxff(float noundef %call5, float noundef %6)
  store float %call6, ptr %result, align 4
  br label %for.inc

for.inc:                                          ; preds = %for.body4
  %7 = load i32, ptr %y, align 4
  %inc = add i32 %7, 1
  store i32 %inc, ptr %y, align 4
  br label %for.cond2, !llvm.loop !11

for.end:                                          ; preds = %for.cond2
  br label %for.inc7

for.inc7:                                         ; preds = %for.end
  %8 = load i32, ptr %x, align 4
  %inc8 = add i32 %8, 1
  store i32 %inc8, ptr %x, align 4
  br label %for.cond, !llvm.loop !12

for.end9:                                         ; preds = %for.cond
  %9 = load float, ptr %result, align 4
  ret float %9
}