; Function Attrs: mustprogress nofree norecurse nosync nounwind willreturn memory(argmem: read) uwtable
define hidden noundef float @_ZNK6Assimp21BlenderTessellatorP2T21FindLargestMatrixElemERK12aiMatrix3x3tIfE(ptr nocapture noundef nonnull readnone align 8 dereferenceable(8) %this, ptr nocapture noundef nonnull readonly align 4 dereferenceable(36) %mtx) local_unnamed_addr #10 align 2 {
entry:
  %b1.i = getelementptr inbounds i8, ptr %mtx, i64 12
  %c1.i = getelementptr inbounds i8, ptr %mtx, i64 24
  br label %for.cond2.preheader

for.cond2.preheader:                              ; preds = %entry, %for.inc7
  %x.023 = phi i32 [ 0, %entry ], [ %inc8, %for.inc7 ]
  %result.022 = phi float [ 0.000000e+00, %entry ], [ %.us-phi, %for.inc7 ]
  switch i32 %x.023, label %for.body4 [
    i32 2, label %for.body4.us
    i32 1, label %for.body4.us9
  ]

for.body4.us:                                     ; preds = %for.cond2.preheader, %for.body4.us
  %indvars.iv27 = phi i64 [ %indvars.iv.next28, %for.body4.us ], [ 0, %for.cond2.preheader ]
  %result.16.us = phi float [ %cond.i.us, %for.body4.us ], [ %result.022, %for.cond2.preheader ]
  %arrayidx.us = getelementptr inbounds float, ptr %c1.i, i64 %indvars.iv27
  %0 = load float, ptr %arrayidx.us, align 4
  %1 = tail call noundef float @llvm.fabs.f32(float %0)
  %cmp.i.us = fcmp ogt float %1, %result.16.us
  %cond.i.us = select i1 %cmp.i.us, float %1, float %result.16.us
  %indvars.iv.next28 = add nuw nsw i64 %indvars.iv27, 1
  %exitcond30.not = icmp eq i64 %indvars.iv.next28, 3
  br i1 %exitcond30.not, label %for.inc7, label %for.body4.us, !llvm.loop !15

for.body4.us9:                                    ; preds = %for.cond2.preheader, %for.body4.us9
  %indvars.iv = phi i64 [ %indvars.iv.next, %for.body4.us9 ], [ 0, %for.cond2.preheader ]
  %result.16.us11 = phi float [ %cond.i.us17, %for.body4.us9 ], [ %result.022, %for.cond2.preheader ]
  %arrayidx.us15 = getelementptr inbounds float, ptr %b1.i, i64 %indvars.iv
  %2 = load float, ptr %arrayidx.us15, align 4
  %3 = tail call noundef float @llvm.fabs.f32(float %2)
  %cmp.i.us16 = fcmp ogt float %3, %result.16.us11
  %cond.i.us17 = select i1 %cmp.i.us16, float %3, float %result.16.us11
  %indvars.iv.next = add nuw nsw i64 %indvars.iv, 1
  %exitcond.not = icmp eq i64 %indvars.iv.next, 3
  br i1 %exitcond.not, label %for.inc7, label %for.body4.us9, !llvm.loop !15

for.body4:                                        ; preds = %for.cond2.preheader, %for.body4
  %indvars.iv31 = phi i64 [ %indvars.iv.next32, %for.body4 ], [ 0, %for.cond2.preheader ]
  %result.16 = phi float [ %cond.i, %for.body4 ], [ %result.022, %for.cond2.preheader ]
  %arrayidx = getelementptr inbounds float, ptr %mtx, i64 %indvars.iv31
  %4 = load float, ptr %arrayidx, align 4
  %5 = tail call noundef float @llvm.fabs.f32(float %4)
  %cmp.i = fcmp ogt float %5, %result.16
  %cond.i = select i1 %cmp.i, float %5, float %result.16
  %indvars.iv.next32 = add nuw nsw i64 %indvars.iv31, 1
  %exitcond34.not = icmp eq i64 %indvars.iv.next32, 3
  br i1 %exitcond34.not, label %for.inc7, label %for.body4, !llvm.loop !15

for.inc7:                                         ; preds = %for.body4.us9, %for.body4.us, %for.body4
  %.us-phi = phi float [ %cond.i, %for.body4 ], [ %cond.i.us, %for.body4.us ], [ %cond.i.us17, %for.body4.us9 ]
  %inc8 = add nuw nsw i32 %x.023, 1
  %exitcond35.not = icmp eq i32 %inc8, 3
  br i1 %exitcond35.not, label %for.end9, label %for.cond2.preheader, !llvm.loop !16

for.end9:                                         ; preds = %for.inc7
  ret float %.us-phi
}